; Function Attrs: mustprogress nounwind uwtable
define dso_local noundef zeroext i1 @_ZN4llvm18isLibFuncEmittableEPKNS_6ModuleEPKNS_17TargetLibraryInfoENS_9StringRefE(ptr noundef %0, ptr noundef %1, ptr %2, i64 %3) local_unnamed_addr #0 {
  %5 = alloca i32, align 4
  %6 = load ptr, ptr %1, align 8
  %7 = call noundef zeroext i1 @_ZNK4llvm21TargetLibraryInfoImpl10getLibFuncENS_9StringRefERNS_7LibFuncE(ptr noundef nonnull align 8 dereferenceable(208) %6, ptr %2, i64 %3, ptr noundef nonnull align 4 dereferenceable(4) %5) #7
  br i1 %7, label %8, label %_ZN4llvm18isLibFuncEmittableEPKNS_6ModuleEPKNS_17TargetLibraryInfoENS_7LibFuncE.exit

8:                                                ; preds = %4
  %9 = load i32, ptr %5, align 4
  %10 = call { ptr, i64 } @_ZNK4llvm17TargetLibraryInfo7getNameENS_7LibFuncE(ptr noundef nonnull align 8 dereferenceable(72) %1, i32 noundef %9)
  %11 = getelementptr inbounds nuw i8, ptr %1, i64 8
  %12 = zext i32 %9 to i64
  %13 = lshr i64 %12, 6
  %14 = getelementptr inbounds [8 x i64], ptr %11, i64 0, i64 %13
  %15 = load i64, ptr %14, align 8
  %16 = and i64 %12, 63
  %17 = shl nuw i64 1, %16
  %18 = and i64 %17, %15
  %.not.i.i.i = icmp eq i64 %18, 0
  br i1 %.not.i.i.i, label %_ZNK4llvm17TargetLibraryInfo3hasENS_7LibFuncE.exit.i, label %_ZN4llvm18isLibFuncEmittableEPKNS_6ModuleEPKNS_17TargetLibraryInfoENS_7LibFuncE.exit

_ZNK4llvm17TargetLibraryInfo3hasENS_7LibFuncE.exit.i: ; preds = %8
  %19 = load ptr, ptr %1, align 8
  %20 = lshr i32 %9, 2
  %21 = zext nneg i32 %20 to i64
  %22 = getelementptr inbounds [126 x i8], ptr %19, i64 0, i64 %21
  %23 = load i8, ptr %22, align 1
  %24 = zext i8 %23 to i32
  %25 = shl i32 %9, 1
  %26 = and i32 %25, 6
  %27 = shl nuw nsw i32 3, %26
  %28 = and i32 %27, %24
  %.not18.i = icmp eq i32 %28, 0
  br i1 %.not18.i, label %_ZN4llvm18isLibFuncEmittableEPKNS_6ModuleEPKNS_17TargetLibraryInfoENS_7LibFuncE.exit, label %29

29:                                               ; preds = %_ZNK4llvm17TargetLibraryInfo3hasENS_7LibFuncE.exit.i
  %30 = extractvalue { ptr, i64 } %10, 1
  %31 = extractvalue { ptr, i64 } %10, 0
  %32 = call noundef ptr @_ZNK4llvm6Module13getNamedValueENS_9StringRefE(ptr noundef nonnull align 8 dereferenceable(857) %0, ptr %31, i64 %30) #7
  %.not.i = icmp eq ptr %32, null
  br i1 %.not.i, label %_ZN4llvm18isLibFuncEmittableEPKNS_6ModuleEPKNS_17TargetLibraryInfoENS_7LibFuncE.exit, label %33

33:                                               ; preds = %29
  %34 = load i8, ptr %32, align 8
  %.not20.i = icmp eq i8 %34, 0
  br i1 %.not20.i, label %35, label %_ZN4llvm18isLibFuncEmittableEPKNS_6ModuleEPKNS_17TargetLibraryInfoENS_7LibFuncE.exit

35:                                               ; preds = %33
  %36 = getelementptr inbounds nuw i8, ptr %32, i64 24
  %37 = load ptr, ptr %36, align 8
  %38 = load ptr, ptr %1, align 8
  %39 = call noundef zeroext i1 @_ZNK4llvm21TargetLibraryInfoImpl22isValidProtoForLibFuncERKNS_12FunctionTypeENS_7LibFuncERKNS_6ModuleE(ptr noundef nonnull align 8 dereferenceable(208) %38, ptr noundef nonnull align 8 dereferenceable(24) %37, i32 noundef %9, ptr noundef nonnull align 8 dereferenceable(857) %0) #7
  br label %_ZN4llvm18isLibFuncEmittableEPKNS_6ModuleEPKNS_17TargetLibraryInfoENS_7LibFuncE.exit

_ZN4llvm18isLibFuncEmittableEPKNS_6ModuleEPKNS_17TargetLibraryInfoENS_7LibFuncE.exit: ; preds = %35, %33, %29, %_ZNK4llvm17TargetLibraryInfo3hasENS_7LibFuncE.exit.i, %8, %4
  %40 = phi i1 [ false, %4 ], [ %39, %35 ], [ false, %_ZNK4llvm17TargetLibraryInfo3hasENS_7LibFuncE.exit.i ], [ false, %33 ], [ true, %29 ], [ false, %8 ]
  ret i1 %40
}